; Function Attrs: mustprogress uwtable
define hidden void @_ZN14solver2smt2_pp5checkEjPKP4expr(ptr noundef nonnull align 8 dereferenceable(1240) %0, i32 noundef %1, ptr noundef readonly captures(none) %2) local_unnamed_addr #3 align 2 {
  %.not29 = icmp eq i32 %1, 0
  br i1 %.not29, label %._crit_edge, label %.lr.ph.preheader

.lr.ph.preheader:                                 ; preds = %3
  %wide.trip.count = zext i32 %1 to i64
  br label %.lr.ph

._crit_edge:                                      ; preds = %.lr.ph, %3
  %4 = getelementptr inbounds nuw i8, ptr %0, i64 704
  tail call void @_ZN11ast_pp_util13display_declsERSo(ptr noundef nonnull align 8 dereferenceable(704) %0, ptr noundef nonnull align 8 dereferenceable(8) %4)
  %5 = tail call noundef nonnull align 8 dereferenceable(8) ptr @_ZSt16__ostream_insertIcSt11char_traitsIcEERSt13basic_ostreamIT_T0_ES6_PKS3_l(ptr noundef nonnull align 8 dereferenceable(8) %4, ptr noundef nonnull @.str.4, i64 noundef 10)
  br i1 %.not29, label %._crit_edge24, label %.lr.ph23.preheader

.lr.ph23.preheader:                               ; preds = %._crit_edge
  %wide.trip.count35 = zext i32 %1 to i64
  br label %.lr.ph23

.lr.ph:                                           ; preds = %.lr.ph.preheader, %.lr.ph
  %indvars.iv = phi i64 [ 0, %.lr.ph.preheader ], [ %indvars.iv.next, %.lr.ph ]
  %6 = getelementptr inbounds nuw ptr, ptr %2, i64 %indvars.iv
  %7 = load ptr, ptr %6, align 8, !tbaa !14
  tail call void @_ZN11ast_pp_util7collectEP4expr(ptr noundef nonnull align 8 dereferenceable(704) %0, ptr noundef %7)
  %indvars.iv.next = add nuw nsw i64 %indvars.iv, 1
  %exitcond.not = icmp eq i64 %indvars.iv.next, %wide.trip.count
  br i1 %exitcond.not, label %._crit_edge, label %.lr.ph, !llvm.loop !24

._crit_edge24:                                    ; preds = %.lr.ph23, %._crit_edge
  %8 = getelementptr inbounds nuw i8, ptr %0, i64 1224
  %9 = load ptr, ptr %8, align 8, !tbaa !8
  %10 = icmp eq ptr %9, null
  br i1 %10, label %._crit_edge28, label %_ZNK15ref_vector_coreI4expr19ref_manager_wrapperIS0_11ast_managerEE3endEv.exit

_ZNK15ref_vector_coreI4expr19ref_manager_wrapperIS0_11ast_managerEE3endEv.exit: ; preds = %._crit_edge24
  %11 = getelementptr inbounds i8, ptr %9, i64 -4
  %12 = load i32, ptr %11, align 4, !tbaa !13
  %13 = zext i32 %12 to i64
  %14 = getelementptr inbounds nuw ptr, ptr %9, i64 %13
  %.not25 = icmp eq i32 %12, 0
  br i1 %.not25, label %._crit_edge28, label %.lr.ph27

.lr.ph23:                                         ; preds = %.lr.ph23.preheader, %.lr.ph23
  %indvars.iv32 = phi i64 [ 0, %.lr.ph23.preheader ], [ %indvars.iv.next33, %.lr.ph23 ]
  %15 = tail call noundef nonnull align 8 dereferenceable(8) ptr @_ZSt16__ostream_insertIcSt11char_traitsIcEERSt13basic_ostreamIT_T0_ES6_PKS3_l(ptr noundef nonnull align 8 dereferenceable(8) %4, ptr noundef nonnull @.str.5, i64 noundef 1)
  %16 = getelementptr inbounds nuw ptr, ptr %2, i64 %indvars.iv32
  %17 = load ptr, ptr %16, align 8, !tbaa !14
  %18 = tail call noundef nonnull align 8 dereferenceable(8) ptr @_ZN11ast_pp_util12display_exprERSoP4exprb(ptr noundef nonnull align 8 dereferenceable(704) %0, ptr noundef nonnull align 8 dereferenceable(8) %4, ptr noundef %17, i1 noundef zeroext true)
  %indvars.iv.next33 = add nuw nsw i64 %indvars.iv32, 1
  %exitcond36.not = icmp eq i64 %indvars.iv.next33, %wide.trip.count35
  br i1 %exitcond36.not, label %._crit_edge24, label %.lr.ph23, !llvm.loop !25

._crit_edge28:                                    ; preds = %.lr.ph27, %._crit_edge24, %_ZNK15ref_vector_coreI4expr19ref_manager_wrapperIS0_11ast_managerEE3endEv.exit
  %19 = tail call noundef nonnull align 8 dereferenceable(8) ptr @_ZSt16__ostream_insertIcSt11char_traitsIcEERSt13basic_ostreamIT_T0_ES6_PKS3_l(ptr noundef nonnull align 8 dereferenceable(8) %4, ptr noundef nonnull @.str.2, i64 noundef 2)
  %20 = tail call noundef nonnull align 8 dereferenceable(8) ptr @_ZNSo5flushEv(ptr noundef nonnull align 8 dereferenceable(8) %4)
  ret void

.lr.ph27:                                         ; preds = %_ZNK15ref_vector_coreI4expr19ref_manager_wrapperIS0_11ast_managerEE3endEv.exit, %.lr.ph27
  %.01826 = phi ptr [ %24, %.lr.ph27 ], [ %9, %_ZNK15ref_vector_coreI4expr19ref_manager_wrapperIS0_11ast_managerEE3endEv.exit ]
  %21 = load ptr, ptr %.01826, align 8, !tbaa !14
  %22 = tail call noundef nonnull align 8 dereferenceable(8) ptr @_ZSt16__ostream_insertIcSt11char_traitsIcEERSt13basic_ostreamIT_T0_ES6_PKS3_l(ptr noundef nonnull align 8 dereferenceable(8) %4, ptr noundef nonnull @.str.5, i64 noundef 1)
  %23 = tail call noundef nonnull align 8 dereferenceable(8) ptr @_ZN11ast_pp_util12display_exprERSoP4exprb(ptr noundef nonnull align 8 dereferenceable(704) %0, ptr noundef nonnull align 8 dereferenceable(8) %4, ptr noundef %21, i1 noundef zeroext true)
  %24 = getelementptr inbounds nuw i8, ptr %.01826, i64 8
  %.not = icmp eq ptr %24, %14
  br i1 %.not, label %._crit_edge28, label %.lr.ph27
}